target datalayout = "e-m:e-p270:32:32-p271:32:32-p272:64:64-i64:64-i128:128-f80:128-n8:16:32:64-S128"
target triple = "x86_64-pc-linux-gnu"

%union.pthread_mutex_t = type { %struct.__pthread_mutex_s }
%struct.__pthread_mutex_s = type { i32, i32, i32, i32, i32, i16, i16, %struct.__pthread_internal_list }
%struct.__pthread_internal_list = type { ptr, ptr }
%struct.thread_status_t = type { ptr, i64, %union.pthread_mutex_t, %union.pthread_cond_t, [24 x i8] }
%union.pthread_cond_t = type { %struct.__pthread_cond_s }
%struct.__pthread_cond_s = type { %union.__atomic_wide_counter, %union.__atomic_wide_counter, [2 x i32], [2 x i32], i32, i32, [2 x i32] }
%union.__atomic_wide_counter = type { i64 }
%struct.blas_queue = type { ptr, i64, i64, ptr, ptr, ptr, ptr, ptr, ptr, %union.pthread_mutex_t, %union.pthread_cond_t, i32, i32 }

@blas_server_avail = global i32 0, align 128
@thread_status = internal global [16 x %struct.thread_status_t] zeroinitializer, align 128
@stderr = external global ptr, align 8
@openblas_threads_callback_ = external global ptr, align 8
@.str.5 = private unnamed_addr constant [123 x i8] c"OpenBLAS Warning : Detect OpenMP Loop and this application may hang. Please rebuild the library with USE_OPENMP=1 option.\0A\00", align 1

; Function Attrs: nounwind uwtable
define i32 @exec_blas_async_wait(i64 noundef %0, ptr noundef %1) #0 {
  %3 = alloca i64, align 8
  %4 = alloca ptr, align 8
  %5 = alloca ptr, align 8
  %6 = alloca ptr, align 8
  %7 = alloca ptr, align 8
  store i64 %0, ptr %3, align 8, !tbaa !7
  store ptr %1, ptr %4, align 8, !tbaa !11
  call void @llvm.lifetime.start.p0(i64 8, ptr %5) #8
  br label %8

8:                                                ; preds = %35, %2
  %9 = load i64, ptr %3, align 8, !tbaa !7
  %10 = icmp sgt i64 %9, 0
  br i1 %10, label %11, label %14

11:                                               ; preds = %8
  %12 = load ptr, ptr %4, align 8, !tbaa !11
  %13 = icmp ne ptr %12, null
  br label %14

14:                                               ; preds = %11, %8
  %15 = phi i1 [ false, %8 ], [ %13, %11 ]
  br i1 %15, label %16, label %41

16:                                               ; preds = %14
  %17 = load ptr, ptr %4, align 8, !tbaa !11
  %18 = getelementptr inbounds nuw %struct.blas_queue, ptr %17, i32 0, i32 2
  %19 = load i64, ptr %18, align 8, !tbaa !31
  %20 = getelementptr inbounds [16 x %struct.thread_status_t], ptr @thread_status, i64 0, i64 %19
  %21 = getelementptr inbounds nuw %struct.thread_status_t, ptr %20, i32 0, i32 0
  %22 = load atomic volatile i64, ptr %21 monotonic, align 128
  store i64 %22, ptr %6, align 8
  %23 = load ptr, ptr %6, align 8, !tbaa !11
  store ptr %23, ptr %5, align 8, !tbaa !11
  br label %24

24:                                               ; preds = %27, %16
  %25 = load ptr, ptr %5, align 8, !tbaa !11
  %26 = icmp ne ptr %25, null
  br i1 %26, label %27, label %35

27:                                               ; preds = %24
  call void asm sideeffect "nop;nop;nop;nop;nop;nop;nop;nop;\0A", "~{dirflag},~{fpsr},~{flags}"() #8, !srcloc !43
  %28 = load ptr, ptr %4, align 8, !tbaa !11
  %29 = getelementptr inbounds nuw %struct.blas_queue, ptr %28, i32 0, i32 2
  %30 = load i64, ptr %29, align 8, !tbaa !31
  %31 = getelementptr inbounds [16 x %struct.thread_status_t], ptr @thread_status, i64 0, i64 %30
  %32 = getelementptr inbounds nuw %struct.thread_status_t, ptr %31, i32 0, i32 0
  %33 = load atomic volatile i64, ptr %32 monotonic, align 128
  store i64 %33, ptr %7, align 8
  %34 = load ptr, ptr %7, align 8, !tbaa !11
  store ptr %34, ptr %5, align 8, !tbaa !11
  br label %24, !llvm.loop !44

35:                                               ; preds = %24
  %36 = load ptr, ptr %4, align 8, !tbaa !11
  %37 = getelementptr inbounds nuw %struct.blas_queue, ptr %36, i32 0, i32 8
  %38 = load ptr, ptr %37, align 8, !tbaa !33
  store ptr %38, ptr %4, align 8, !tbaa !11
  %39 = load i64, ptr %3, align 8, !tbaa !7
  %40 = add nsw i64 %39, -1
  store i64 %40, ptr %3, align 8, !tbaa !7
  br label %8, !llvm.loop !45

41:                                               ; preds = %14
  br label %42

42:                                               ; preds = %41
  call void asm sideeffect "", "~{memory},~{dirflag},~{fpsr},~{flags}"() #8, !srcloc !46
  br label %43

43:                                               ; preds = %42
  br label %44

44:                                               ; preds = %43
  call void @llvm.lifetime.end.p0(i64 8, ptr %5) #8
  ret i32 0
}

; Function Attrs: nounwind uwtable
define i32 @exec_blas(i64 noundef %0, ptr noundef %1) #0 {
  %3 = alloca i32, align 4
  %4 = alloca i64, align 8
  %5 = alloca ptr, align 8
  %6 = alloca ptr, align 8
  %7 = alloca i32, align 4
  %8 = alloca i32, align 4
  %9 = alloca i32, align 4
  %10 = alloca ptr, align 8
  store i64 %0, ptr %4, align 8, !tbaa !7
  store ptr %1, ptr %5, align 8, !tbaa !11
  %11 = load i32, ptr @blas_server_avail, align 128, !tbaa !3
  %12 = icmp eq i32 %11, 0
  %13 = xor i1 %12, true
  %14 = xor i1 %13, true
  %15 = zext i1 %14 to i32
  %16 = sext i32 %15 to i64
  %17 = call i64 @llvm.expect.i64(i64 %16, i64 0)
  %18 = icmp ne i64 %17, 0
  br i1 %18, label %19, label %21

19:                                               ; preds = %2
  %20 = call i32 @blas_thread_init()
  br label %21

21:                                               ; preds = %19, %2
  call void @llvm.lifetime.start.p0(i64 8, ptr %6) #8
  %22 = load i64, ptr %4, align 8, !tbaa !7
  %23 = icmp sle i64 %22, 0
  br i1 %23, label %27, label %24

24:                                               ; preds = %21
  %25 = load ptr, ptr %5, align 8, !tbaa !11
  %26 = icmp eq ptr %25, null
  br i1 %26, label %27, label %28

27:                                               ; preds = %24, %21
  store i32 0, ptr %3, align 4
  store i32 1, ptr %7, align 4
  br label %151

28:                                               ; preds = %24
  %29 = load ptr, ptr @openblas_threads_callback_, align 8, !tbaa !9
  %30 = icmp ne ptr %29, null
  br i1 %30, label %31, label %54

31:                                               ; preds = %28
  call void @llvm.lifetime.start.p0(i64 4, ptr %8) #8
  store i32 0, ptr %8, align 4, !tbaa !3
  call void @llvm.lifetime.start.p0(i64 4, ptr %9) #8
  store i32 0, ptr %9, align 4, !tbaa !3
  store i32 0, ptr %9, align 4, !tbaa !3
  br label %32

32:                                               ; preds = %45, %31
  %33 = load i32, ptr %9, align 4, !tbaa !3
  %34 = sext i32 %33 to i64
  %35 = load i64, ptr %4, align 8, !tbaa !7
  %36 = icmp slt i64 %34, %35
  br i1 %36, label %37, label %48

37:                                               ; preds = %32
  %38 = load i32, ptr %9, align 4, !tbaa !3
  %39 = sext i32 %38 to i64
  %40 = load ptr, ptr %5, align 8, !tbaa !11
  %41 = load i32, ptr %9, align 4, !tbaa !3
  %42 = sext i32 %41 to i64
  %43 = getelementptr inbounds %struct.blas_queue, ptr %40, i64 %42
  %44 = getelementptr inbounds nuw %struct.blas_queue, ptr %43, i32 0, i32 1
  store i64 %39, ptr %44, align 8, !tbaa !28
  br label %45

45:                                               ; preds = %37
  %46 = load i32, ptr %9, align 4, !tbaa !3
  %47 = add nsw i32 %46, 1
  store i32 %47, ptr %9, align 4, !tbaa !3
  br label %32, !llvm.loop !47

48:                                               ; preds = %32
  %49 = load ptr, ptr @openblas_threads_callback_, align 8, !tbaa !9
  %50 = load i64, ptr %4, align 8, !tbaa !7
  %51 = trunc i64 %50 to i32
  %52 = load ptr, ptr %5, align 8, !tbaa !11
  %53 = load i32, ptr %8, align 4, !tbaa !3
  call void %49(i32 noundef 1, ptr noundef @exec_threads, i32 noundef %51, i64 noundef 168, ptr noundef %52, i32 noundef %53)
  store i32 0, ptr %3, align 4
  store i32 1, ptr %7, align 4
  call void @llvm.lifetime.end.p0(i64 4, ptr %9) #8
  call void @llvm.lifetime.end.p0(i64 4, ptr %8) #8
  br label %151

54:                                               ; preds = %28
  %55 = icmp ne ptr @omp_in_parallel, null
  br i1 %55, label %56, label %66

56:                                               ; preds = %54
  %57 = load i64, ptr %4, align 8, !tbaa !7
  %58 = icmp sgt i64 %57, 1
  br i1 %58, label %59, label %66

59:                                               ; preds = %56
  %60 = call i32 @omp_in_parallel()
  %61 = icmp sgt i32 %60, 0
  br i1 %61, label %62, label %65

62:                                               ; preds = %59
  %63 = load ptr, ptr @stderr, align 8, !tbaa !17
  %64 = call i32 (ptr, ptr, ...) @fprintf(ptr noundef %63, ptr noundef @.str.5) #8
  br label %65

65:                                               ; preds = %62, %59
  br label %66

66:                                               ; preds = %65, %56, %54
  %67 = load i64, ptr %4, align 8, !tbaa !7
  %68 = icmp sgt i64 %67, 1
  br i1 %68, label %69, label %79

69:                                               ; preds = %66
  %70 = load ptr, ptr %5, align 8, !tbaa !11
  %71 = getelementptr inbounds nuw %struct.blas_queue, ptr %70, i32 0, i32 8
  %72 = load ptr, ptr %71, align 8, !tbaa !33
  %73 = icmp ne ptr %72, null
  br i1 %73, label %74, label %79

74:                                               ; preds = %69
  %75 = load ptr, ptr %5, align 8, !tbaa !11
  %76 = getelementptr inbounds nuw %struct.blas_queue, ptr %75, i32 0, i32 8
  %77 = load ptr, ptr %76, align 8, !tbaa !33
  %78 = call i32 @exec_blas_async(i64 noundef 1, ptr noundef %77)
  br label %79

79:                                               ; preds = %74, %69, %66
  %80 = load ptr, ptr %5, align 8, !tbaa !11
  %81 = getelementptr inbounds nuw %struct.blas_queue, ptr %80, i32 0, i32 0
  %82 = load ptr, ptr %81, align 8, !tbaa !48
  store ptr %82, ptr %6, align 8, !tbaa !9
  %83 = load ptr, ptr %5, align 8, !tbaa !11
  %84 = getelementptr inbounds nuw %struct.blas_queue, ptr %83, i32 0, i32 11
  %85 = load i32, ptr %84, align 8, !tbaa !49
  %86 = and i32 %85, 32768
  %87 = icmp ne i32 %86, 0
  br i1 %87, label %88, label %99

88:                                               ; preds = %79
  %89 = load ptr, ptr %6, align 8, !tbaa !9
  %90 = load ptr, ptr %5, align 8, !tbaa !11
  %91 = getelementptr inbounds nuw %struct.blas_queue, ptr %90, i32 0, i32 11
  %92 = load i32, ptr %91, align 8, !tbaa !49
  %93 = load ptr, ptr %5, align 8, !tbaa !11
  %94 = getelementptr inbounds nuw %struct.blas_queue, ptr %93, i32 0, i32 3
  %95 = load ptr, ptr %94, align 8, !tbaa !50
  %96 = load ptr, ptr %5, align 8, !tbaa !11
  %97 = getelementptr inbounds nuw %struct.blas_queue, ptr %96, i32 0, i32 7
  %98 = load ptr, ptr %97, align 8, !tbaa !51
  call void @legacy_exec(ptr noundef %89, i32 noundef %92, ptr noundef %95, ptr noundef %98)
  br label %132

99:                                               ; preds = %79
  %100 = load ptr, ptr %5, align 8, !tbaa !11
  %101 = getelementptr inbounds nuw %struct.blas_queue, ptr %100, i32 0, i32 11
  %102 = load i32, ptr %101, align 8, !tbaa !49
  %103 = and i32 %102, 16384
  %104 = icmp ne i32 %103, 0
  br i1 %104, label %105, label %113

105:                                              ; preds = %99
  call void @llvm.lifetime.start.p0(i64 8, ptr %10) #8
  %106 = load ptr, ptr %5, align 8, !tbaa !11
  %107 = getelementptr inbounds nuw %struct.blas_queue, ptr %106, i32 0, i32 0
  %108 = load ptr, ptr %107, align 8, !tbaa !48
  store ptr %108, ptr %10, align 8, !tbaa !9
  %109 = load ptr, ptr %10, align 8, !tbaa !9
  %110 = load ptr, ptr %5, align 8, !tbaa !11
  %111 = getelementptr inbounds nuw %struct.blas_queue, ptr %110, i32 0, i32 3
  %112 = load ptr, ptr %111, align 8, !tbaa !50
  call void %109(ptr noundef %112)
  call void @llvm.lifetime.end.p0(i64 8, ptr %10) #8
  br label %131

113:                                              ; preds = %99
  %114 = load ptr, ptr %6, align 8, !tbaa !9
  %115 = load ptr, ptr %5, align 8, !tbaa !11
  %116 = getelementptr inbounds nuw %struct.blas_queue, ptr %115, i32 0, i32 3
  %117 = load ptr, ptr %116, align 8, !tbaa !50
  %118 = load ptr, ptr %5, align 8, !tbaa !11
  %119 = getelementptr inbounds nuw %struct.blas_queue, ptr %118, i32 0, i32 4
  %120 = load ptr, ptr %119, align 8, !tbaa !52
  %121 = load ptr, ptr %5, align 8, !tbaa !11
  %122 = getelementptr inbounds nuw %struct.blas_queue, ptr %121, i32 0, i32 5
  %123 = load ptr, ptr %122, align 8, !tbaa !53
  %124 = load ptr, ptr %5, align 8, !tbaa !11
  %125 = getelementptr inbounds nuw %struct.blas_queue, ptr %124, i32 0, i32 6
  %126 = load ptr, ptr %125, align 8, !tbaa !54
  %127 = load ptr, ptr %5, align 8, !tbaa !11
  %128 = getelementptr inbounds nuw %struct.blas_queue, ptr %127, i32 0, i32 7
  %129 = load ptr, ptr %128, align 8, !tbaa !51
  %130 = call i32 %114(ptr noundef %117, ptr noundef %120, ptr noundef %123, ptr noundef %126, ptr noundef %129, i64 noundef 0)
  br label %131

131:                                              ; preds = %113, %105
  br label %132

132:                                              ; preds = %131, %88
  %133 = load i64, ptr %4, align 8, !tbaa !7
  %134 = icmp sgt i64 %133, 1
  br i1 %134, label %135, label %150

135:                                              ; preds = %132
  %136 = load ptr, ptr %5, align 8, !tbaa !11
  %137 = getelementptr inbounds nuw %struct.blas_queue, ptr %136, i32 0, i32 8
  %138 = load ptr, ptr %137, align 8, !tbaa !33
  %139 = icmp ne ptr %138, null
  br i1 %139, label %140, label %150

140:                                              ; preds = %135
  %141 = load i64, ptr %4, align 8, !tbaa !7
  %142 = sub nsw i64 %141, 1
  %143 = load ptr, ptr %5, align 8, !tbaa !11
  %144 = getelementptr inbounds nuw %struct.blas_queue, ptr %143, i32 0, i32 8
  %145 = load ptr, ptr %144, align 8, !tbaa !33
  %146 = call i32 @exec_blas_async_wait(i64 noundef %142, ptr noundef %145)
  br label %147

147:                                              ; preds = %140
  call void asm sideeffect "", "~{memory},~{dirflag},~{fpsr},~{flags}"() #8, !srcloc !55
  br label %148

148:                                              ; preds = %147
  br label %149

149:                                              ; preds = %148
  br label %150

150:                                              ; preds = %149, %135, %132
  store i32 0, ptr %3, align 4
  store i32 1, ptr %7, align 4
  br label %151

151:                                              ; preds = %150, %48, %27
  call void @llvm.lifetime.end.p0(i64 8, ptr %6) #8
  %152 = load i32, ptr %3, align 4
  ret i32 %152
}